target datalayout = "e-m:e-p270:32:32-p271:32:32-p272:64:64-i64:64-i128:128-f80:128-n8:16:32:64-S128"
target triple = "x86_64-pc-linux-gnu"

%struct.Clu_Man_t_ = type { i32, i32, i32, i32, i32, i32, i32, i32, i32, i32, i32, i32, i32, i32, i32, ptr, ptr, ptr, ptr, i32, i32, i32, ptr, ptr, ptr, i32, i32, i32, i32, ptr, ptr, ptr, i32, i32 }
%struct.Vec_Ptr_t_ = type { i32, i32, ptr }

; Function Attrs: inlinehint nounwind uwtable
define internal ptr @Vec_PtrEntry(ptr noundef %0, i32 noundef %1) #2 {
  %3 = alloca ptr, align 8
  %4 = alloca i32, align 4
  store ptr %0, ptr %3, align 8, !tbaa !109
  store i32 %1, ptr %4, align 4, !tbaa !21
  %5 = load ptr, ptr %3, align 8, !tbaa !109
  %6 = getelementptr inbounds nuw %struct.Vec_Ptr_t_, ptr %5, i32 0, i32 2
  %7 = load ptr, ptr %6, align 8, !tbaa !112
  %8 = load i32, ptr %4, align 4, !tbaa !21
  %9 = sext i32 %8 to i64
  %10 = getelementptr inbounds ptr, ptr %7, i64 %9
  %11 = load ptr, ptr %10, align 8, !tbaa !113
  ret ptr %11
}

; Function Attrs: inlinehint nounwind uwtable
define internal void @Vec_PtrCleanSimInfo(ptr noundef %0, i32 noundef %1, i32 noundef %2) #2 {
  %4 = alloca ptr, align 8
  %5 = alloca i32, align 4
  %6 = alloca i32, align 4
  %7 = alloca i32, align 4
  store ptr %0, ptr %4, align 8, !tbaa !109
  store i32 %1, ptr %5, align 4, !tbaa !21
  store i32 %2, ptr %6, align 4, !tbaa !21
  call void @llvm.lifetime.start.p0(i64 4, ptr %7) #11
  store i32 0, ptr %7, align 4, !tbaa !21
  br label %8

8:                                                ; preds = %27, %3
  %9 = load i32, ptr %7, align 4, !tbaa !21
  %10 = load ptr, ptr %4, align 8, !tbaa !109
  %11 = getelementptr inbounds nuw %struct.Vec_Ptr_t_, ptr %10, i32 0, i32 1
  %12 = load i32, ptr %11, align 4, !tbaa !110
  %13 = icmp slt i32 %9, %12
  br i1 %13, label %14, label %30

14:                                               ; preds = %8
  %15 = load ptr, ptr %4, align 8, !tbaa !109
  %16 = load i32, ptr %7, align 4, !tbaa !21
  %17 = call ptr @Vec_PtrEntry(ptr noundef %15, i32 noundef %16)
  %18 = load i32, ptr %5, align 4, !tbaa !21
  %19 = mul nsw i32 4, %18
  %20 = sext i32 %19 to i64
  %21 = getelementptr inbounds i8, ptr %17, i64 %20
  %22 = load i32, ptr %6, align 4, !tbaa !21
  %23 = load i32, ptr %5, align 4, !tbaa !21
  %24 = sub nsw i32 %22, %23
  %25 = mul nsw i32 4, %24
  %26 = sext i32 %25 to i64
  call void @llvm.memset.p0.i64(ptr align 1 %21, i8 0, i64 %26, i1 false)
  br label %27

27:                                               ; preds = %14
  %28 = load i32, ptr %7, align 4, !tbaa !21
  %29 = add nsw i32 %28, 1
  store i32 %29, ptr %7, align 4, !tbaa !21
  br label %8, !llvm.loop !171

30:                                               ; preds = %8
  call void @llvm.lifetime.end.p0(i64 4, ptr %7) #11
  ret void
}

; Function Attrs: nounwind uwtable
define void @Fra_ClausSimInfoClean(ptr noundef %0) #0 {
  %2 = alloca ptr, align 8
  store ptr %0, ptr %2, align 8, !tbaa !3
  %3 = load ptr, ptr %2, align 8, !tbaa !3
  %4 = getelementptr inbounds nuw %struct.Clu_Man_t_, ptr %3, i32 0, i32 31
  %5 = load ptr, ptr %4, align 8, !tbaa !168
  %6 = load ptr, ptr %2, align 8, !tbaa !3
  %7 = getelementptr inbounds nuw %struct.Clu_Man_t_, ptr %6, i32 0, i32 33
  %8 = load i32, ptr %7, align 4, !tbaa !169
  %9 = sdiv i32 %8, 32
  call void @Vec_PtrCleanSimInfo(ptr noundef %5, i32 noundef 0, i32 noundef %9)
  %10 = load ptr, ptr %2, align 8, !tbaa !3
  %11 = getelementptr inbounds nuw %struct.Clu_Man_t_, ptr %10, i32 0, i32 32
  store i32 0, ptr %11, align 8, !tbaa !170
  ret void
}