; Function Attrs: nofree norecurse nosync nounwind memory(readwrite, inaccessiblemem: none) uwtable
define void @Fra_ClausSimInfoClean(ptr noundef captures(none) %0) local_unnamed_addr #11 {
  %2 = getelementptr inbounds nuw i8, ptr %0, i64 168
  %3 = load ptr, ptr %2, align 8, !tbaa !159
  %4 = getelementptr inbounds nuw i8, ptr %3, i64 4
  %5 = load i32, ptr %4, align 4, !tbaa !97
  %6 = icmp sgt i32 %5, 0
  br i1 %6, label %.lr.ph.i, label %Vec_PtrCleanSimInfo.exit

.lr.ph.i:                                         ; preds = %1
  %7 = getelementptr inbounds nuw i8, ptr %0, i64 180
  %8 = load i32, ptr %7, align 4, !tbaa !160
  %9 = sdiv i32 %8, 32
  %10 = getelementptr i8, ptr %3, i64 8
  %11 = shl nsw i32 %9, 2
  %12 = sext i32 %11 to i64
  br label %13

13:                                               ; preds = %13, %.lr.ph.i
  %indvars.iv.i = phi i64 [ 0, %.lr.ph.i ], [ %indvars.iv.next.i, %13 ]
  %.val.i = load ptr, ptr %10, align 8, !tbaa !31
  %14 = getelementptr inbounds nuw ptr, ptr %.val.i, i64 %indvars.iv.i
  %15 = load ptr, ptr %14, align 8, !tbaa !33
  tail call void @llvm.memset.p0.i64(ptr align 1 %15, i8 0, i64 %12, i1 false)
  %indvars.iv.next.i = add nuw nsw i64 %indvars.iv.i, 1
  %16 = load i32, ptr %4, align 4, !tbaa !97
  %17 = sext i32 %16 to i64
  %18 = icmp slt i64 %indvars.iv.next.i, %17
  br i1 %18, label %13, label %Vec_PtrCleanSimInfo.exit, !llvm.loop !161

Vec_PtrCleanSimInfo.exit:                         ; preds = %13, %1
  %19 = getelementptr inbounds nuw i8, ptr %0, i64 176
  store i32 0, ptr %19, align 8, !tbaa !162
  ret void
}